target datalayout = "e-m:e-p270:32:32-p271:32:32-p272:64:64-i64:64-i128:128-f80:128-n8:16:32:64-S128"
target triple = "x86_64-pc-linux-gnu"

%struct.ForEachState = type { ptr, i32 }
%union.ListCell = type { ptr }
%struct.QualCost = type { double, double }
%struct.Expr = type { i32 }
%struct.PlannerInfo = type { i32, ptr, ptr, i32, ptr, ptr, ptr, ptr, i32, ptr, ptr, ptr, ptr, ptr, ptr, ptr, ptr, i32, ptr, ptr, ptr, ptr, ptr, i8, ptr, ptr, ptr, ptr, ptr, i32, ptr, ptr, ptr, ptr, ptr, ptr, ptr, i32, ptr, ptr, ptr, i32, ptr, ptr, ptr, ptr, ptr, ptr, [8 x ptr], [8 x ptr], ptr, ptr, ptr, ptr, ptr, ptr, ptr, double, double, double, i32, i8, i8, i8, i8, i8, i8, i8, i32, ptr, ptr, i32, i8, i8, i32, ptr, ptr, ptr, ptr, ptr, ptr, i8, ptr }
%struct.List = type { i32, i32, i32, ptr, [0 x %union.ListCell] }
%struct.EquivalenceClass = type { i32, ptr, i32, ptr, ptr, ptr, ptr, i8, i8, i8, i32, i32, i32, ptr }
%struct.EquivalenceMember = type { i32, ptr, ptr, i8, i8, i32, ptr, ptr }
%struct.Node = type { i32 }
%struct.RelOptInfo = type { i32, i32, ptr, double, i8, i8, i8, ptr, ptr, ptr, ptr, ptr, ptr, ptr, ptr, ptr, ptr, i32, i32, i32, i16, i16, ptr, ptr, ptr, ptr, ptr, ptr, ptr, ptr, i32, double, double, ptr, ptr, ptr, i32, i32, i32, i32, i8, ptr, ptr, ptr, ptr, ptr, %struct.QualCost, i32, ptr, i8, i8, ptr, ptr, ptr, ptr, i32, ptr, i8, ptr, ptr, ptr, ptr, ptr, ptr }
%struct.TargetEntry = type { %struct.Expr, ptr, i16, ptr, i32, i32, i16, i8 }
%struct.PathKey = type { i32, ptr, i32, i32, i8 }

@.str.1 = private unnamed_addr constant [13 x i8] c"equivclass.c\00", align 1
@.str.3 = private unnamed_addr constant [35 x i8] c"too few pathkeys for set operation\00", align 1
@__func__.add_setop_child_rel_equivalences = private unnamed_addr constant [33 x i8] c"add_setop_child_rel_equivalences\00", align 1

; Function Attrs: inlinehint nounwind uwtable
define internal ptr @newNode(i64 noundef %0, i32 noundef %1) #2 {
  %3 = alloca i64, align 8
  %4 = alloca i32, align 4
  %5 = alloca ptr, align 8
  store i64 %0, ptr %3, align 8
  store i32 %1, ptr %4, align 4
  call void @llvm.lifetime.start.p0(i64 8, ptr %5) #6
  %6 = load i64, ptr %3, align 8
  %7 = call ptr @palloc0(i64 noundef %6)
  store ptr %7, ptr %5, align 8
  %8 = load i32, ptr %4, align 4
  %9 = load ptr, ptr %5, align 8
  %10 = getelementptr inbounds nuw %struct.Node, ptr %9, i32 0, i32 0
  store i32 %8, ptr %10, align 4
  %11 = load ptr, ptr %5, align 8
  call void @llvm.lifetime.end.p0(i64 8, ptr %5) #6
  ret ptr %11
}

; Function Attrs: inlinehint nounwind uwtable
define internal i32 @list_length(ptr noundef %0) #2 {
  %2 = alloca ptr, align 8
  store ptr %0, ptr %2, align 8
  %3 = load ptr, ptr %2, align 8
  %4 = icmp ne ptr %3, null
  br i1 %4, label %5, label %9

5:                                                ; preds = %1
  %6 = load ptr, ptr %2, align 8
  %7 = getelementptr inbounds nuw %struct.List, ptr %6, i32 0, i32 1
  %8 = load i32, ptr %7, align 4
  br label %10

9:                                                ; preds = %1
  br label %10

10:                                               ; preds = %9, %5
  %11 = phi i32 [ %8, %5 ], [ 0, %9 ]
  ret i32 %11
}

; Function Attrs: inlinehint nounwind uwtable
define internal ptr @lnext(ptr noundef %0, ptr noundef %1) #2 {
  %3 = alloca ptr, align 8
  %4 = alloca ptr, align 8
  %5 = alloca ptr, align 8
  store ptr %0, ptr %4, align 8
  store ptr %1, ptr %5, align 8
  %6 = load ptr, ptr %5, align 8
  %7 = getelementptr inbounds nuw %union.ListCell, ptr %6, i32 1
  store ptr %7, ptr %5, align 8
  %8 = load ptr, ptr %5, align 8
  %9 = load ptr, ptr %4, align 8
  %10 = getelementptr inbounds nuw %struct.List, ptr %9, i32 0, i32 3
  %11 = load ptr, ptr %10, align 8
  %12 = load ptr, ptr %4, align 8
  %13 = getelementptr inbounds nuw %struct.List, ptr %12, i32 0, i32 1
  %14 = load i32, ptr %13, align 4
  %15 = sext i32 %14 to i64
  %16 = getelementptr inbounds %union.ListCell, ptr %11, i64 %15
  %17 = icmp ult ptr %8, %16
  br i1 %17, label %18, label %20

18:                                               ; preds = %2
  %19 = load ptr, ptr %5, align 8
  store ptr %19, ptr %3, align 8
  br label %21

20:                                               ; preds = %2
  store ptr null, ptr %3, align 8
  br label %21

21:                                               ; preds = %20, %18
  %22 = load ptr, ptr %3, align 8
  ret ptr %22
}

; Function Attrs: nounwind uwtable
define internal ptr @add_eq_member(ptr noundef %0, ptr noundef %1, ptr noundef %2, ptr noundef %3, ptr noundef %4, i32 noundef %5) #0 {
  %7 = alloca ptr, align 8
  %8 = alloca ptr, align 8
  %9 = alloca ptr, align 8
  %10 = alloca ptr, align 8
  %11 = alloca ptr, align 8
  %12 = alloca i32, align 4
  %13 = alloca ptr, align 8
  store ptr %0, ptr %7, align 8
  store ptr %1, ptr %8, align 8
  store ptr %2, ptr %9, align 8
  store ptr %3, ptr %10, align 8
  store ptr %4, ptr %11, align 8
  store i32 %5, ptr %12, align 4
  call void @llvm.lifetime.start.p0(i64 8, ptr %13) #6
  %14 = call ptr @newNode(i64 noundef 48, i32 noundef 273)
  store ptr %14, ptr %13, align 8
  %15 = load ptr, ptr %8, align 8
  %16 = load ptr, ptr %13, align 8
  %17 = getelementptr inbounds nuw %struct.EquivalenceMember, ptr %16, i32 0, i32 1
  store ptr %15, ptr %17, align 8
  %18 = load ptr, ptr %9, align 8
  %19 = load ptr, ptr %13, align 8
  %20 = getelementptr inbounds nuw %struct.EquivalenceMember, ptr %19, i32 0, i32 2
  store ptr %18, ptr %20, align 8
  %21 = load ptr, ptr %13, align 8
  %22 = getelementptr inbounds nuw %struct.EquivalenceMember, ptr %21, i32 0, i32 3
  store i8 0, ptr %22, align 8
  %23 = load ptr, ptr %11, align 8
  %24 = icmp ne ptr %23, null
  %25 = load ptr, ptr %13, align 8
  %26 = getelementptr inbounds nuw %struct.EquivalenceMember, ptr %25, i32 0, i32 4
  %27 = zext i1 %24 to i8
  store i8 %27, ptr %26, align 1
  %28 = load i32, ptr %12, align 4
  %29 = load ptr, ptr %13, align 8
  %30 = getelementptr inbounds nuw %struct.EquivalenceMember, ptr %29, i32 0, i32 5
  store i32 %28, ptr %30, align 4
  %31 = load ptr, ptr %10, align 8
  %32 = load ptr, ptr %13, align 8
  %33 = getelementptr inbounds nuw %struct.EquivalenceMember, ptr %32, i32 0, i32 6
  store ptr %31, ptr %33, align 8
  %34 = load ptr, ptr %11, align 8
  %35 = load ptr, ptr %13, align 8
  %36 = getelementptr inbounds nuw %struct.EquivalenceMember, ptr %35, i32 0, i32 7
  store ptr %34, ptr %36, align 8
  %37 = load ptr, ptr %9, align 8
  %38 = icmp eq ptr %37, null
  br i1 %38, label %39, label %44

39:                                               ; preds = %6
  %40 = load ptr, ptr %13, align 8
  %41 = getelementptr inbounds nuw %struct.EquivalenceMember, ptr %40, i32 0, i32 3
  store i8 1, ptr %41, align 8
  %42 = load ptr, ptr %7, align 8
  %43 = getelementptr inbounds nuw %struct.EquivalenceClass, ptr %42, i32 0, i32 7
  store i8 1, ptr %43, align 8
  br label %56

44:                                               ; preds = %6
  %45 = load ptr, ptr %11, align 8
  %46 = icmp ne ptr %45, null
  br i1 %46, label %55, label %47

47:                                               ; preds = %44
  %48 = load ptr, ptr %7, align 8
  %49 = getelementptr inbounds nuw %struct.EquivalenceClass, ptr %48, i32 0, i32 6
  %50 = load ptr, ptr %49, align 8
  %51 = load ptr, ptr %9, align 8
  %52 = call ptr @bms_add_members(ptr noundef %50, ptr noundef %51)
  %53 = load ptr, ptr %7, align 8
  %54 = getelementptr inbounds nuw %struct.EquivalenceClass, ptr %53, i32 0, i32 6
  store ptr %52, ptr %54, align 8
  br label %55

55:                                               ; preds = %47, %44
  br label %56

56:                                               ; preds = %55, %39
  %57 = load ptr, ptr %7, align 8
  %58 = getelementptr inbounds nuw %struct.EquivalenceClass, ptr %57, i32 0, i32 3
  %59 = load ptr, ptr %58, align 8
  %60 = load ptr, ptr %13, align 8
  %61 = call ptr @lappend(ptr noundef %59, ptr noundef %60)
  %62 = load ptr, ptr %7, align 8
  %63 = getelementptr inbounds nuw %struct.EquivalenceClass, ptr %62, i32 0, i32 3
  store ptr %61, ptr %63, align 8
  %64 = load ptr, ptr %13, align 8
  call void @llvm.lifetime.end.p0(i64 8, ptr %13) #6
  ret ptr %64
}

; Function Attrs: inlinehint nounwind uwtable
define internal ptr @list_nth_cell(ptr noundef %0, i32 noundef %1) #2 {
  %3 = alloca ptr, align 8
  %4 = alloca i32, align 4
  store ptr %0, ptr %3, align 8
  store i32 %1, ptr %4, align 4
  %5 = load ptr, ptr %3, align 8
  %6 = getelementptr inbounds nuw %struct.List, ptr %5, i32 0, i32 3
  %7 = load ptr, ptr %6, align 8
  %8 = load i32, ptr %4, align 4
  %9 = sext i32 %8 to i64
  %10 = getelementptr inbounds %union.ListCell, ptr %7, i64 %9
  ret ptr %10
}

; Function Attrs: inlinehint nounwind uwtable
define internal ptr @list_head(ptr noundef %0) #2 {
  %2 = alloca ptr, align 8
  store ptr %0, ptr %2, align 8
  %3 = load ptr, ptr %2, align 8
  %4 = icmp ne ptr %3, null
  br i1 %4, label %5, label %10

5:                                                ; preds = %1
  %6 = load ptr, ptr %2, align 8
  %7 = getelementptr inbounds nuw %struct.List, ptr %6, i32 0, i32 3
  %8 = load ptr, ptr %7, align 8
  %9 = getelementptr inbounds %union.ListCell, ptr %8, i64 0
  br label %11

10:                                               ; preds = %1
  br label %11

11:                                               ; preds = %10, %5
  %12 = phi ptr [ %9, %5 ], [ null, %10 ]
  ret ptr %12
}

; Function Attrs: nounwind uwtable
define dso_local void @add_setop_child_rel_equivalences(ptr noundef %0, ptr noundef %1, ptr noundef %2, ptr noundef %3) #0 {
  %5 = alloca ptr, align 8
  %6 = alloca ptr, align 8
  %7 = alloca ptr, align 8
  %8 = alloca ptr, align 8
  %9 = alloca ptr, align 8
  %10 = alloca ptr, align 8
  %11 = alloca %struct.ForEachState, align 8
  %12 = alloca i32, align 4
  %13 = alloca ptr, align 8
  %14 = alloca ptr, align 8
  %15 = alloca ptr, align 8
  store ptr %0, ptr %5, align 8
  store ptr %1, ptr %6, align 8
  store ptr %2, ptr %7, align 8
  store ptr %3, ptr %8, align 8
  call void @llvm.lifetime.start.p0(i64 8, ptr %9) #6
  call void @llvm.lifetime.start.p0(i64 8, ptr %10) #6
  %16 = load ptr, ptr %8, align 8
  %17 = call ptr @list_head(ptr noundef %16)
  store ptr %17, ptr %10, align 8
  call void @llvm.lifetime.start.p0(i64 16, ptr %11) #6
  %18 = getelementptr inbounds nuw %struct.ForEachState, ptr %11, i32 0, i32 0
  %19 = load ptr, ptr %7, align 8
  store ptr %19, ptr %18, align 8
  %20 = getelementptr inbounds nuw %struct.ForEachState, ptr %11, i32 0, i32 1
  store i32 0, ptr %20, align 8
  %21 = getelementptr i8, ptr %11, i64 12
  call void @llvm.memset.p0.i64(ptr align 4 %21, i8 0, i64 4, i1 false)
  br label %22

22:                                               ; preds = %104, %4
  %23 = getelementptr inbounds nuw %struct.ForEachState, ptr %11, i32 0, i32 0
  %24 = load ptr, ptr %23, align 8
  %25 = icmp ne ptr %24, null
  br i1 %25, label %26, label %43

26:                                               ; preds = %22
  %27 = getelementptr inbounds nuw %struct.ForEachState, ptr %11, i32 0, i32 1
  %28 = load i32, ptr %27, align 8
  %29 = getelementptr inbounds nuw %struct.ForEachState, ptr %11, i32 0, i32 0
  %30 = load ptr, ptr %29, align 8
  %31 = getelementptr inbounds nuw %struct.List, ptr %30, i32 0, i32 1
  %32 = load i32, ptr %31, align 4
  %33 = icmp slt i32 %28, %32
  br i1 %33, label %34, label %43

34:                                               ; preds = %26
  %35 = getelementptr inbounds nuw %struct.ForEachState, ptr %11, i32 0, i32 0
  %36 = load ptr, ptr %35, align 8
  %37 = getelementptr inbounds nuw %struct.List, ptr %36, i32 0, i32 3
  %38 = load ptr, ptr %37, align 8
  %39 = getelementptr inbounds nuw %struct.ForEachState, ptr %11, i32 0, i32 1
  %40 = load i32, ptr %39, align 8
  %41 = sext i32 %40 to i64
  %42 = getelementptr inbounds %union.ListCell, ptr %38, i64 %41
  store ptr %42, ptr %9, align 8
  br label %44

43:                                               ; preds = %26, %22
  store ptr null, ptr %9, align 8
  br label %44

44:                                               ; preds = %43, %34
  %45 = phi i32 [ 1, %34 ], [ 0, %43 ]
  %46 = icmp ne i32 %45, 0
  br i1 %46, label %48, label %47

47:                                               ; preds = %44
  store i32 2, ptr %12, align 4
  call void @llvm.lifetime.end.p0(i64 16, ptr %11) #6
  br label %108

48:                                               ; preds = %44
  call void @llvm.lifetime.start.p0(i64 8, ptr %13) #6
  %49 = load ptr, ptr %9, align 8
  %50 = load ptr, ptr %49, align 8
  store ptr %50, ptr %13, align 8
  call void @llvm.lifetime.start.p0(i64 8, ptr %14) #6
  call void @llvm.lifetime.start.p0(i64 8, ptr %15) #6
  %51 = load ptr, ptr %13, align 8
  %52 = getelementptr inbounds nuw %struct.TargetEntry, ptr %51, i32 0, i32 7
  %53 = load i8, ptr %52, align 2, !range !4, !noundef !5
  %54 = trunc i8 %53 to i1
  br i1 %54, label %55, label %56

55:                                               ; preds = %48
  store i32 4, ptr %12, align 4
  br label %101

56:                                               ; preds = %48
  %57 = load ptr, ptr %10, align 8
  %58 = icmp eq ptr %57, null
  br i1 %58, label %59, label %70

59:                                               ; preds = %56
  br label %60

60:                                               ; preds = %59
  br i1 true, label %61, label %63

61:                                               ; preds = %60
  %62 = call zeroext i1 @errstart_cold(i32 noundef 21, ptr noundef null) #7
  br i1 %62, label %65, label %67

63:                                               ; preds = %60
  %64 = call zeroext i1 @errstart(i32 noundef 21, ptr noundef null)
  br i1 %64, label %65, label %67

65:                                               ; preds = %63, %61
  %66 = call i32 (ptr, ...) @errmsg_internal(ptr noundef @.str.3)
  call void @errfinish(ptr noundef @.str.1, i32 noundef 2959, ptr noundef @__func__.add_setop_child_rel_equivalences)
  br label %67

67:                                               ; preds = %65, %63, %61
  unreachable

68:                                               ; No predecessors!
  br label %69

69:                                               ; preds = %68
  br label %70

70:                                               ; preds = %69, %56
  %71 = load ptr, ptr %10, align 8
  %72 = load ptr, ptr %71, align 8
  store ptr %72, ptr %15, align 8
  %73 = load ptr, ptr %15, align 8
  %74 = getelementptr inbounds nuw %struct.PathKey, ptr %73, i32 0, i32 1
  %75 = load ptr, ptr %74, align 8
  %76 = getelementptr inbounds nuw %struct.EquivalenceClass, ptr %75, i32 0, i32 3
  %77 = load ptr, ptr %76, align 8
  %78 = call ptr @list_nth_cell(ptr noundef %77, i32 noundef 0)
  %79 = load ptr, ptr %78, align 8
  store ptr %79, ptr %14, align 8
  %80 = load ptr, ptr %15, align 8
  %81 = getelementptr inbounds nuw %struct.PathKey, ptr %80, i32 0, i32 1
  %82 = load ptr, ptr %81, align 8
  %83 = load ptr, ptr %13, align 8
  %84 = getelementptr inbounds nuw %struct.TargetEntry, ptr %83, i32 0, i32 1
  %85 = load ptr, ptr %84, align 8
  %86 = load ptr, ptr %6, align 8
  %87 = getelementptr inbounds nuw %struct.RelOptInfo, ptr %86, i32 0, i32 2
  %88 = load ptr, ptr %87, align 8
  %89 = load ptr, ptr %14, align 8
  %90 = getelementptr inbounds nuw %struct.EquivalenceMember, ptr %89, i32 0, i32 6
  %91 = load ptr, ptr %90, align 8
  %92 = load ptr, ptr %14, align 8
  %93 = load ptr, ptr %13, align 8
  %94 = getelementptr inbounds nuw %struct.TargetEntry, ptr %93, i32 0, i32 1
  %95 = load ptr, ptr %94, align 8
  %96 = call i32 @exprType(ptr noundef %95)
  %97 = call ptr @add_eq_member(ptr noundef %82, ptr noundef %85, ptr noundef %88, ptr noundef %91, ptr noundef %92, i32 noundef %96)
  %98 = load ptr, ptr %8, align 8
  %99 = load ptr, ptr %10, align 8
  %100 = call ptr @lnext(ptr noundef %98, ptr noundef %99)
  store ptr %100, ptr %10, align 8
  store i32 0, ptr %12, align 4
  br label %101

101:                                              ; preds = %70, %55
  call void @llvm.lifetime.end.p0(i64 8, ptr %15) #6
  call void @llvm.lifetime.end.p0(i64 8, ptr %14) #6
  call void @llvm.lifetime.end.p0(i64 8, ptr %13) #6
  %102 = load i32, ptr %12, align 4
  switch i32 %102, label %120 [
    i32 0, label %103
    i32 4, label %104
  ]

103:                                              ; preds = %101
  br label %104

104:                                              ; preds = %103, %101
  %105 = getelementptr inbounds nuw %struct.ForEachState, ptr %11, i32 0, i32 1
  %106 = load i32, ptr %105, align 8
  %107 = add i32 %106, 1
  store i32 %107, ptr %105, align 8
  br label %22, !llvm.loop !58

108:                                              ; preds = %47
  %109 = load ptr, ptr %6, align 8
  %110 = getelementptr inbounds nuw %struct.RelOptInfo, ptr %109, i32 0, i32 33
  %111 = load ptr, ptr %110, align 8
  %112 = load ptr, ptr %5, align 8
  %113 = getelementptr inbounds nuw %struct.PlannerInfo, ptr %112, i32 0, i32 22
  %114 = load ptr, ptr %113, align 8
  %115 = call i32 @list_length(ptr noundef %114)
  %116 = sub i32 %115, 1
  %117 = call ptr @bms_add_range(ptr noundef %111, i32 noundef 0, i32 noundef %116)
  %118 = load ptr, ptr %6, align 8
  %119 = getelementptr inbounds nuw %struct.RelOptInfo, ptr %118, i32 0, i32 33
  store ptr %117, ptr %119, align 8
  call void @llvm.lifetime.end.p0(i64 8, ptr %10) #6
  call void @llvm.lifetime.end.p0(i64 8, ptr %9) #6
  ret void

120:                                              ; preds = %101
  unreachable
}