; Function Attrs: nounwind uwtable
define dso_local void @add_setop_child_rel_equivalences(ptr noundef readonly captures(none) %0, ptr noundef captures(none) %1, ptr noundef readonly captures(address_is_null) %2, ptr noundef readonly captures(address_is_null) %3) local_unnamed_addr #0 {
  %.not.i = icmp eq ptr %3, null
  br i1 %.not.i, label %list_head.exit, label %5

5:                                                ; preds = %4
  %6 = getelementptr inbounds nuw i8, ptr %3, i64 16
  %7 = load ptr, ptr %6, align 8
  br label %list_head.exit

list_head.exit:                                   ; preds = %4, %5
  %8 = phi ptr [ %7, %5 ], [ null, %4 ]
  %.not = icmp eq ptr %2, null
  br i1 %.not, label %._crit_edge, label %.lr.ph

.lr.ph:                                           ; preds = %list_head.exit
  %9 = getelementptr inbounds nuw i8, ptr %2, i64 4
  %10 = getelementptr inbounds nuw i8, ptr %2, i64 16
  %11 = getelementptr inbounds nuw i8, ptr %1, i64 8
  %12 = getelementptr i8, ptr %3, i64 4
  %13 = getelementptr i8, ptr %3, i64 16
  %14 = load i32, ptr %9, align 4
  %15 = icmp sgt i32 %14, 0
  br i1 %15, label %.lr.ph35, label %._crit_edge

._crit_edge:                                      ; preds = %70, %.lr.ph, %list_head.exit
  %16 = getelementptr inbounds nuw i8, ptr %1, i64 216
  %17 = load ptr, ptr %16, align 8
  %18 = getelementptr inbounds nuw i8, ptr %0, i64 176
  %19 = load ptr, ptr %18, align 8
  %.not.i27 = icmp eq ptr %19, null
  br i1 %.not.i27, label %list_length.exit, label %20

20:                                               ; preds = %._crit_edge
  %21 = getelementptr inbounds nuw i8, ptr %19, i64 4
  %22 = load i32, ptr %21, align 4
  %23 = add i32 %22, -1
  br label %list_length.exit

list_length.exit:                                 ; preds = %._crit_edge, %20
  %24 = phi i32 [ %23, %20 ], [ -1, %._crit_edge ]
  %25 = tail call ptr @bms_add_range(ptr noundef %17, i32 noundef 0, i32 noundef %24) #8
  store ptr %25, ptr %16, align 8
  ret void

.lr.ph35:                                         ; preds = %.lr.ph, %70
  %26 = phi i32 [ %71, %70 ], [ %14, %.lr.ph ]
  %indvars.iv = phi i64 [ %indvars.iv.next, %70 ], [ 0, %.lr.ph ]
  %.0223133 = phi ptr [ %.1, %70 ], [ %8, %.lr.ph ]
  %27 = load ptr, ptr %10, align 8
  %28 = getelementptr inbounds nuw %union.ListCell, ptr %27, i64 %indvars.iv
  %29 = load ptr, ptr %28, align 8
  %30 = getelementptr inbounds nuw i8, ptr %29, i64 42
  %31 = load i8, ptr %30, align 2, !range !4, !noundef !5
  %32 = trunc nuw i8 %31 to i1
  br i1 %32, label %70, label %33

33:                                               ; preds = %.lr.ph35
  %34 = icmp eq ptr %.0223133, null
  br i1 %34, label %.split, label %37

.split:                                           ; preds = %33
  %35 = tail call zeroext i1 @errstart_cold(i32 noundef 21, ptr noundef null) #9
  tail call void @llvm.assume(i1 %35)
  %36 = tail call i32 (ptr, ...) @errmsg_internal(ptr noundef nonnull @.str.3) #8
  tail call void @errfinish(ptr noundef nonnull @.str.1, i32 noundef 2959, ptr noundef nonnull @__func__.add_setop_child_rel_equivalences) #8
  unreachable

37:                                               ; preds = %33
  %38 = load ptr, ptr %.0223133, align 8
  %39 = getelementptr inbounds nuw i8, ptr %38, i64 8
  %40 = load ptr, ptr %39, align 8
  %41 = getelementptr inbounds nuw i8, ptr %40, i64 24
  %42 = load ptr, ptr %41, align 8
  %43 = getelementptr i8, ptr %42, i64 16
  %.val = load ptr, ptr %43, align 8
  %44 = load ptr, ptr %.val, align 8
  %45 = getelementptr inbounds nuw i8, ptr %29, i64 8
  %46 = load ptr, ptr %45, align 8
  %47 = load ptr, ptr %11, align 8
  %48 = getelementptr inbounds nuw i8, ptr %44, i64 32
  %49 = load ptr, ptr %48, align 8
  %50 = tail call i32 @exprType(ptr noundef %46) #8
  %51 = tail call noundef ptr @palloc0(i64 noundef 48) #8
  store i32 273, ptr %51, align 4
  %52 = getelementptr inbounds nuw i8, ptr %51, i64 8
  store ptr %46, ptr %52, align 8
  %53 = getelementptr inbounds nuw i8, ptr %51, i64 16
  store ptr %47, ptr %53, align 8
  %54 = getelementptr inbounds nuw i8, ptr %51, i64 24
  store i8 0, ptr %54, align 8
  %55 = icmp ne ptr %44, null
  %56 = getelementptr inbounds nuw i8, ptr %51, i64 25
  %57 = zext i1 %55 to i8
  store i8 %57, ptr %56, align 1
  %58 = getelementptr inbounds nuw i8, ptr %51, i64 28
  store i32 %50, ptr %58, align 4
  %59 = getelementptr inbounds nuw i8, ptr %51, i64 32
  store ptr %49, ptr %59, align 8
  %60 = getelementptr inbounds nuw i8, ptr %51, i64 40
  store ptr %44, ptr %60, align 8
  %61 = icmp eq ptr %47, null
  br i1 %61, label %62, label %add_eq_member.exit

62:                                               ; preds = %37
  store i8 1, ptr %54, align 8
  %63 = getelementptr inbounds nuw i8, ptr %40, i64 56
  store i8 1, ptr %63, align 8
  br label %add_eq_member.exit

add_eq_member.exit:                               ; preds = %37, %62
  %64 = load ptr, ptr %41, align 8
  %65 = tail call ptr @lappend(ptr noundef %64, ptr noundef nonnull %51) #8
  store ptr %65, ptr %41, align 8
  %.val25 = load i32, ptr %12, align 4
  %.val26 = load ptr, ptr %13, align 8
  %66 = getelementptr inbounds nuw i8, ptr %.0223133, i64 8
  %67 = sext i32 %.val25 to i64
  %68 = getelementptr inbounds %union.ListCell, ptr %.val26, i64 %67
  %69 = icmp ult ptr %66, %68
  %..i = select i1 %69, ptr %66, ptr null
  %.pre = load i32, ptr %9, align 4
  br label %70

70:                                               ; preds = %.lr.ph35, %add_eq_member.exit
  %71 = phi i32 [ %.pre, %add_eq_member.exit ], [ %26, %.lr.ph35 ]
  %.1 = phi ptr [ %..i, %add_eq_member.exit ], [ %.0223133, %.lr.ph35 ]
  %indvars.iv.next = add nuw nsw i64 %indvars.iv, 1
  %72 = sext i32 %71 to i64
  %73 = icmp slt i64 %indvars.iv.next, %72
  br i1 %73, label %.lr.ph35, label %._crit_edge
}